(dp0
Vengine
p1
S'pdflatex'
p2
sVpackages
p3
c__builtin__
set
p4
((lp5
Vtikz
p6
aVfancyhdr
p7
aVamsmath
p8
aVextramarks
p9
aVlastpage
p10
aVamsthm
p11
aVlipsum
p12
aVgraphicx
p13
aVamssymb
p14
atp15
Rp16
sVfiles_with_guttermarks
p17
g4
((lp18
V/Users/andrewwork/Documents/Grad_School/Misc_Textbooks/Machine_Learning/HW/HW1_solns/hw1_solns.tex
p19
aV/Users/andrewwork/Documents/Grad_School/Misc_Textbooks/Machine_Learning/HW/HW1_solns/./hw1_solns.tex
p20
aS'hw1_solns.tex'
p21
atp22
Rp23
sVsynctex
p24
I01
s.