(dp0
Vengine
p1
S'pdflatex'
p2
sVpackages
p3
c__builtin__
set
p4
((lp5
Vtikz
p6
aVfancyhdr
p7
aVamsmath
p8
aVextramarks
p9
aVlastpage
p10
aVamsthm
p11
aVlipsum
p12
aVgraphicx
p13
aVamssymb
p14
atp15
Rp16
sVfiles_with_guttermarks
p17
g4
((lp18
V/Users/andrewwork/Documents/Grad_School/Misc_Textbooks/Machine_Learning/homework/solns/hw4_solns/hw4_solns.tex
p19
aS'hw4_solns.tex'
p20
atp21
Rp22
sVsynctex
p23
I01
s.